; Function Attrs: mustprogress uwtable
define { i64, ptr } @_ZNK31grpc_channel_security_connector4typeEv(ptr noundef nonnull readonly align 8 captures(none) dereferenceable(56) %0) unnamed_addr #4 align 2 {
  %2 = getelementptr inbounds nuw i8, ptr %0, i64 32
  %3 = load ptr, ptr %2, align 8, !tbaa !14
  %4 = load ptr, ptr %3, align 8, !tbaa !12
  %5 = getelementptr inbounds nuw i8, ptr %4, i64 40
  %6 = load ptr, ptr %5, align 8
  %7 = tail call { i64, ptr } %6(ptr noundef nonnull align 8 dereferenceable(16) %3)
  ret { i64, ptr } %7
}